; Function Attrs: mustprogress uwtable
define hidden void @_ZN3sls6solver11force_phaseEN3sat7literalE(ptr noundef nonnull readonly align 8 captures(none) dereferenceable(160) %0, i32 %1) unnamed_addr #3 align 2 {
  %3 = getelementptr inbounds nuw i8, ptr %0, i64 80
  %4 = load ptr, ptr %3, align 8, !tbaa !411
  %5 = getelementptr inbounds nuw i8, ptr %4, i64 24
  %6 = load ptr, ptr %5, align 8, !tbaa !407
  %7 = load ptr, ptr %6, align 8, !tbaa !384
  %8 = getelementptr inbounds nuw i8, ptr %7, i64 48
  %9 = load ptr, ptr %8, align 8
  tail call void %9(ptr noundef nonnull align 8 dereferenceable(4264) %6, i32 %1)
  ret void
}